; ModuleID = '24/631.c'
source_filename = "24/631.c"
target datalayout = "e-m:e-p270:32:32-p271:32:32-p272:64:64-i64:64-f80:128-n8:16:32:64-S128"
target triple = "x86_64-pc-linux-gnu"

@.str = private unnamed_addr constant [3 x i8] c"%c\00", align 1
@.str.1 = private unnamed_addr constant [2 x i8] c"\0A\00", align 1

; Function Attrs: noinline nounwind uwtable
define dso_local i32 @main() #0 {
  %1 = alloca i32, align 4
  %2 = alloca [1000 x i8], align 16
  %3 = alloca [100 x i32], align 16
  %4 = alloca i32, align 4
  %5 = alloca i32, align 4
  %6 = alloca i32, align 4
  %7 = alloca i32, align 4
  %8 = alloca i32, align 4
  %9 = alloca i32, align 4
  %10 = alloca i32, align 4
  %11 = alloca i32, align 4
  store i32 0, i32* %1, align 4
  %12 = getelementptr inbounds [1000 x i8], [1000 x i8]* %2, i64 0, i64 0
  %13 = call i32 (i8*, ...) bitcast (i32 (...)* @gets to i32 (i8*, ...)*)(i8* %12)
  %14 = getelementptr inbounds [1000 x i8], [1000 x i8]* %2, i64 0, i64 0
  %15 = call i64 @strlen(i8* %14) #3
  %16 = trunc i64 %15 to i32
  store i32 %16, i32* %4, align 4
  store i32 0, i32* %5, align 4
  store i32 0, i32* %6, align 4
  store i32 0, i32* %9, align 4
  store i32 65535, i32* %11, align 4
  br label %17

17:                                               ; preds = %108, %0
  %18 = load i32, i32* %5, align 4
  %19 = load i32, i32* %4, align 4
  %20 = icmp slt i32 %18, %19
  br i1 %20, label %21, label %111

21:                                               ; preds = %17
  %22 = load i32, i32* %5, align 4
  %23 = sext i32 %22 to i64
  %24 = getelementptr inbounds [1000 x i8], [1000 x i8]* %2, i64 0, i64 %23
  %25 = load i8, i8* %24, align 1
  %26 = sext i8 %25 to i32
  %27 = icmp sge i32 %26, 97
  br i1 %27, label %28, label %35

28:                                               ; preds = %21
  %29 = load i32, i32* %5, align 4
  %30 = sext i32 %29 to i64
  %31 = getelementptr inbounds [1000 x i8], [1000 x i8]* %2, i64 0, i64 %30
  %32 = load i8, i8* %31, align 1
  %33 = sext i8 %32 to i32
  %34 = icmp sle i32 %33, 122
  br i1 %34, label %49, label %35

35:                                               ; preds = %28, %21
  %36 = load i32, i32* %5, align 4
  %37 = sext i32 %36 to i64
  %38 = getelementptr inbounds [1000 x i8], [1000 x i8]* %2, i64 0, i64 %37
  %39 = load i8, i8* %38, align 1
  %40 = sext i8 %39 to i32
  %41 = icmp sge i32 %40, 65
  br i1 %41, label %42, label %108

42:                                               ; preds = %35
  %43 = load i32, i32* %5, align 4
  %44 = sext i32 %43 to i64
  %45 = getelementptr inbounds [1000 x i8], [1000 x i8]* %2, i64 0, i64 %44
  %46 = load i8, i8* %45, align 1
  %47 = sext i8 %46 to i32
  %48 = icmp sle i32 %47, 90
  br i1 %48, label %49, label %108

49:                                               ; preds = %42, %28
  %50 = load i32, i32* %6, align 4
  %51 = add nsw i32 %50, 1
  store i32 %51, i32* %6, align 4
  %52 = load i32, i32* %5, align 4
  %53 = load i32, i32* %6, align 4
  %54 = sext i32 %53 to i64
  %55 = getelementptr inbounds [100 x i32], [100 x i32]* %3, i64 0, i64 %54
  store i32 %52, i32* %55, align 4
  store i32 0, i32* %7, align 4
  br label %56

56:                                               ; preds = %88, %49
  %57 = load i32, i32* %5, align 4
  %58 = sext i32 %57 to i64
  %59 = getelementptr inbounds [1000 x i8], [1000 x i8]* %2, i64 0, i64 %58
  %60 = load i8, i8* %59, align 1
  %61 = sext i8 %60 to i32
  %62 = icmp sge i32 %61, 97
  br i1 %62, label %63, label %70

63:                                               ; preds = %56
  %64 = load i32, i32* %5, align 4
  %65 = sext i32 %64 to i64
  %66 = getelementptr inbounds [1000 x i8], [1000 x i8]* %2, i64 0, i64 %65
  %67 = load i8, i8* %66, align 1
  %68 = sext i8 %67 to i32
  %69 = icmp sle i32 %68, 122
  br i1 %69, label %86, label %70

70:                                               ; preds = %63, %56
  %71 = load i32, i32* %5, align 4
  %72 = sext i32 %71 to i64
  %73 = getelementptr inbounds [1000 x i8], [1000 x i8]* %2, i64 0, i64 %72
  %74 = load i8, i8* %73, align 1
  %75 = sext i8 %74 to i32
  %76 = icmp sge i32 %75, 65
  br i1 %76, label %77, label %84

77:                                               ; preds = %70
  %78 = load i32, i32* %5, align 4
  %79 = sext i32 %78 to i64
  %80 = getelementptr inbounds [1000 x i8], [1000 x i8]* %2, i64 0, i64 %79
  %81 = load i8, i8* %80, align 1
  %82 = sext i8 %81 to i32
  %83 = icmp sle i32 %82, 90
  br label %84

84:                                               ; preds = %77, %70
  %85 = phi i1 [ false, %70 ], [ %83, %77 ]
  br label %86

86:                                               ; preds = %84, %63
  %87 = phi i1 [ true, %63 ], [ %85, %84 ]
  br i1 %87, label %88, label %93

88:                                               ; preds = %86
  %89 = load i32, i32* %5, align 4
  %90 = add nsw i32 %89, 1
  store i32 %90, i32* %5, align 4
  %91 = load i32, i32* %7, align 4
  %92 = add nsw i32 %91, 1
  store i32 %92, i32* %7, align 4
  br label %56

93:                                               ; preds = %86
  %94 = load i32, i32* %9, align 4
  %95 = load i32, i32* %7, align 4
  %96 = icmp slt i32 %94, %95
  br i1 %96, label %97, label %100

97:                                               ; preds = %93
  %98 = load i32, i32* %7, align 4
  store i32 %98, i32* %9, align 4
  %99 = load i32, i32* %6, align 4
  store i32 %99, i32* %8, align 4
  br label %100

100:                                              ; preds = %97, %93
  %101 = load i32, i32* %11, align 4
  %102 = load i32, i32* %7, align 4
  %103 = icmp sgt i32 %101, %102
  br i1 %103, label %104, label %107

104:                                              ; preds = %100
  %105 = load i32, i32* %7, align 4
  store i32 %105, i32* %11, align 4
  %106 = load i32, i32* %6, align 4
  store i32 %106, i32* %10, align 4
  br label %107

107:                                              ; preds = %104, %100
  br label %108

108:                                              ; preds = %107, %42, %35
  %109 = load i32, i32* %5, align 4
  %110 = add nsw i32 %109, 1
  store i32 %110, i32* %5, align 4
  br label %17

111:                                              ; preds = %17
  %112 = load i32, i32* %8, align 4
  %113 = sext i32 %112 to i64
  %114 = getelementptr inbounds [100 x i32], [100 x i32]* %3, i64 0, i64 %113
  %115 = load i32, i32* %114, align 4
  store i32 %115, i32* %5, align 4
  br label %116

116:                                              ; preds = %132, %111
  %117 = load i32, i32* %5, align 4
  %118 = load i32, i32* %8, align 4
  %119 = sext i32 %118 to i64
  %120 = getelementptr inbounds [100 x i32], [100 x i32]* %3, i64 0, i64 %119
  %121 = load i32, i32* %120, align 4
  %122 = load i32, i32* %9, align 4
  %123 = add nsw i32 %121, %122
  %124 = icmp slt i32 %117, %123
  br i1 %124, label %125, label %135

125:                                              ; preds = %116
  %126 = load i32, i32* %5, align 4
  %127 = sext i32 %126 to i64
  %128 = getelementptr inbounds [1000 x i8], [1000 x i8]* %2, i64 0, i64 %127
  %129 = load i8, i8* %128, align 1
  %130 = sext i8 %129 to i32
  %131 = call i32 (i8*, ...) @printf(i8* getelementptr inbounds ([3 x i8], [3 x i8]* @.str, i64 0, i64 0), i32 %130)
  br label %132

132:                                              ; preds = %125
  %133 = load i32, i32* %5, align 4
  %134 = add nsw i32 %133, 1
  store i32 %134, i32* %5, align 4
  br label %116

135:                                              ; preds = %116
  %136 = call i32 (i8*, ...) @printf(i8* getelementptr inbounds ([2 x i8], [2 x i8]* @.str.1, i64 0, i64 0))
  %137 = load i32, i32* %10, align 4
  %138 = sext i32 %137 to i64
  %139 = getelementptr inbounds [100 x i32], [100 x i32]* %3, i64 0, i64 %138
  %140 = load i32, i32* %139, align 4
  store i32 %140, i32* %5, align 4
  br label %141

141:                                              ; preds = %157, %135
  %142 = load i32, i32* %5, align 4
  %143 = load i32, i32* %10, align 4
  %144 = sext i32 %143 to i64
  %145 = getelementptr inbounds [100 x i32], [100 x i32]* %3, i64 0, i64 %144
  %146 = load i32, i32* %145, align 4
  %147 = load i32, i32* %11, align 4
  %148 = add nsw i32 %146, %147
  %149 = icmp slt i32 %142, %148
  br i1 %149, label %150, label %160

150:                                              ; preds = %141
  %151 = load i32, i32* %5, align 4
  %152 = sext i32 %151 to i64
  %153 = getelementptr inbounds [1000 x i8], [1000 x i8]* %2, i64 0, i64 %152
  %154 = load i8, i8* %153, align 1
  %155 = sext i8 %154 to i32
  %156 = call i32 (i8*, ...) @printf(i8* getelementptr inbounds ([3 x i8], [3 x i8]* @.str, i64 0, i64 0), i32 %155)
  br label %157

157:                                              ; preds = %150
  %158 = load i32, i32* %5, align 4
  %159 = add nsw i32 %158, 1
  store i32 %159, i32* %5, align 4
  br label %141

160:                                              ; preds = %141
  %161 = call i32 (i8*, ...) @printf(i8* getelementptr inbounds ([2 x i8], [2 x i8]* @.str.1, i64 0, i64 0))
  ret i32 0
}

declare dso_local i32 @gets(...) #1

; Function Attrs: nounwind readonly
declare dso_local i64 @strlen(i8*) #2

declare dso_local i32 @printf(i8*, ...) #1


!llvm.module.flags = !{!0}
!llvm.ident = !{!1}

!0 = !{i32 1, !"wchar_size", i32 4}
!1 = !{!"clang version 10.0.0-4ubuntu1 "}
